; Function Attrs: nounwind uwtable
define void @Ssw_SignalCorrespondenceArray1(ptr noundef readonly captures(none) %0, ptr noundef readonly captures(none) %1) local_unnamed_addr #0 {
  %3 = alloca %struct.Cec_ParCor_t_, align 8
  call void @llvm.lifetime.start.p0(i64 96, ptr nonnull %3) #15
  call void @Cec_ManCorSetDefaultParams(ptr noundef nonnull %3) #15
  %4 = getelementptr inbounds nuw i8, ptr %1, i64 32
  %5 = load i32, ptr %4, align 8, !tbaa !3
  %6 = getelementptr inbounds nuw i8, ptr %3, i64 16
  store i32 %5, ptr %6, align 8, !tbaa !9
  %7 = getelementptr inbounds nuw i8, ptr %1, i64 112
  %8 = load i32, ptr %7, align 8, !tbaa !11
  %9 = getelementptr inbounds nuw i8, ptr %3, i64 76
  store i32 %8, ptr %9, align 4, !tbaa !12
  %10 = getelementptr inbounds nuw i8, ptr %3, i64 56
  store i32 1, ptr %10, align 8, !tbaa !13
  %11 = getelementptr i8, ptr %0, i64 4
  %.val16 = load i32, ptr %11, align 4, !tbaa !14
  %12 = icmp sgt i32 %.val16, 0
  br i1 %12, label %.lr.ph, label %.critedge

.lr.ph:                                           ; preds = %2
  %13 = getelementptr i8, ptr %0, i64 8
  br label %14

14:                                               ; preds = %.lr.ph, %23
  %.val19 = phi i32 [ %.val16, %.lr.ph ], [ %.val, %23 ]
  %indvars.iv = phi i64 [ 0, %.lr.ph ], [ %indvars.iv.next, %23 ]
  %.val13 = load ptr, ptr %13, align 8, !tbaa !16
  %15 = getelementptr inbounds nuw ptr, ptr %.val13, i64 %indvars.iv
  %16 = load ptr, ptr %15, align 8, !tbaa !17
  %17 = getelementptr i8, ptr %16, i64 16
  %.val14 = load i32, ptr %17, align 8, !tbaa !18
  %18 = getelementptr i8, ptr %16, i64 64
  %.val15 = load ptr, ptr %18, align 8, !tbaa !39
  %19 = getelementptr i8, ptr %.val15, i64 4
  %.val15.val = load i32, ptr %19, align 4, !tbaa !40
  %20 = icmp sgt i32 %.val15.val, %.val14
  br i1 %20, label %21, label %23

21:                                               ; preds = %14
  %22 = call i32 @Cec_ManLSCorrespondenceClasses(ptr noundef nonnull %16, ptr noundef nonnull %3) #15
  %.val.pre = load i32, ptr %11, align 4, !tbaa !14
  br label %23

23:                                               ; preds = %14, %21
  %.val = phi i32 [ %.val19, %14 ], [ %.val.pre, %21 ]
  %indvars.iv.next = add nuw nsw i64 %indvars.iv, 1
  %24 = sext i32 %.val to i64
  %25 = icmp slt i64 %indvars.iv.next, %24
  br i1 %25, label %14, label %.critedge, !llvm.loop !41

.critedge:                                        ; preds = %23, %2
  call void @llvm.lifetime.end.p0(i64 96, ptr nonnull %3) #15
  ret void
}